target datalayout = "e-m:e-p270:32:32-p271:32:32-p272:64:64-i64:64-i128:128-f80:128-n8:16:32:64-S128"
target triple = "x86_64-pc-linux-gnu"

; Function Attrs: mustprogress nounwind uwtable
define noundef signext i8 @_ZN6icu_7714HebrewCalendar10isLeapYearEi(i32 noundef %0) #3 align 2 {
  %2 = alloca i32, align 4
  %3 = alloca i64, align 8
  store i32 %0, ptr %2, align 4, !tbaa !15
  call void @llvm.lifetime.start.p0(i64 8, ptr %3) #11
  %4 = load i32, ptr %2, align 4, !tbaa !15
  %5 = sext i32 %4 to i64
  %6 = mul nsw i64 %5, 12
  %7 = add nsw i64 %6, 17
  %8 = srem i64 %7, 19
  store i64 %8, ptr %3, align 8, !tbaa !19
  %9 = load i64, ptr %3, align 8, !tbaa !19
  %10 = load i64, ptr %3, align 8, !tbaa !19
  %11 = icmp slt i64 %10, 0
  %12 = select i1 %11, i32 -7, i32 12
  %13 = sext i32 %12 to i64
  %14 = icmp sge i64 %9, %13
  %15 = zext i1 %14 to i8
  call void @llvm.lifetime.end.p0(i64 8, ptr %3) #11
  ret i8 %15
}

; Function Attrs: inlinehint mustprogress nounwind uwtable
define internal noundef signext i8 @_ZL9U_FAILURE10UErrorCode(i32 noundef %0) #4 {
  %2 = alloca i32, align 4
  store i32 %0, ptr %2, align 4, !tbaa !17
  %3 = load i32, ptr %2, align 4, !tbaa !17
  %4 = icmp sgt i32 %3, 0
  %5 = zext i1 %4 to i8
  ret i8 %5
}

; Function Attrs: mustprogress uwtable
define void @_ZN6icu_7714HebrewCalendar3addE19UCalendarDateFieldsiR10UErrorCode(ptr noundef nonnull align 8 dereferenceable(192) %0, i32 noundef %1, i32 noundef %2, ptr noundef nonnull align 4 dereferenceable(4) %3) unnamed_addr #0 align 2 {
  %5 = alloca ptr, align 8
  %6 = alloca i32, align 4
  %7 = alloca i32, align 4
  %8 = alloca ptr, align 8
  %9 = alloca i64, align 8
  %10 = alloca i32, align 4
  %11 = alloca i8, align 1
  %12 = alloca i32, align 4
  store ptr %0, ptr %5, align 8, !tbaa !3
  store i32 %1, ptr %6, align 4, !tbaa !13
  store i32 %2, ptr %7, align 4, !tbaa !15
  store ptr %3, ptr %8, align 8, !tbaa !10
  %13 = load ptr, ptr %5, align 8
  %14 = load ptr, ptr %8, align 8, !tbaa !10
  %15 = load i32, ptr %14, align 4, !tbaa !17
  %16 = call noundef signext i8 @_ZL9U_FAILURE10UErrorCode(i32 noundef %15)
  %17 = icmp ne i8 %16, 0
  br i1 %17, label %18, label %19

18:                                               ; preds = %4
  br label %137

19:                                               ; preds = %4
  %20 = load i32, ptr %6, align 4, !tbaa !13
  switch i32 %20, label %133 [
    i32 2, label %21
    i32 23, label %21
  ]

21:                                               ; preds = %19, %19
  call void @llvm.lifetime.start.p0(i64 8, ptr %9) #11
  %22 = load ptr, ptr %8, align 8, !tbaa !10
  %23 = call noundef i32 @_ZNK6icu_778Calendar3getE19UCalendarDateFieldsR10UErrorCode(ptr noundef nonnull align 8 dereferenceable(192) %13, i32 noundef 2, ptr noundef nonnull align 4 dereferenceable(4) %22)
  %24 = sext i32 %23 to i64
  store i64 %24, ptr %9, align 8, !tbaa !19
  call void @llvm.lifetime.start.p0(i64 4, ptr %10) #11
  %25 = load ptr, ptr %8, align 8, !tbaa !10
  %26 = call noundef i32 @_ZNK6icu_778Calendar3getE19UCalendarDateFieldsR10UErrorCode(ptr noundef nonnull align 8 dereferenceable(192) %13, i32 noundef 1, ptr noundef nonnull align 4 dereferenceable(4) %25)
  store i32 %26, ptr %10, align 4, !tbaa !15
  call void @llvm.lifetime.start.p0(i64 1, ptr %11) #11
  %27 = load i32, ptr %7, align 4, !tbaa !15
  %28 = icmp sgt i32 %27, 0
  br i1 %28, label %29, label %76

29:                                               ; preds = %21
  %30 = load i64, ptr %9, align 8, !tbaa !19
  %31 = icmp slt i64 %30, 5
  %32 = zext i1 %31 to i8
  store i8 %32, ptr %11, align 1, !tbaa !21
  %33 = load i32, ptr %7, align 4, !tbaa !15
  %34 = sext i32 %33 to i64
  %35 = load i64, ptr %9, align 8, !tbaa !19
  %36 = add nsw i64 %35, %34
  store i64 %36, ptr %9, align 8, !tbaa !19
  %37 = load i64, ptr %9, align 8, !tbaa !19
  %38 = icmp sge i64 %37, 235
  br i1 %38, label %39, label %52

39:                                               ; preds = %29
  %40 = load i32, ptr %10, align 4, !tbaa !15
  %41 = load i64, ptr %9, align 8, !tbaa !19
  %42 = sdiv i64 %41, 235
  %43 = mul nsw i64 %42, 19
  %44 = trunc i64 %43 to i32
  %45 = call signext i8 @uprv_add32_overflow_77(i32 noundef %40, i32 noundef %44, ptr noundef %10)
  %46 = icmp ne i8 %45, 0
  br i1 %46, label %47, label %49

47:                                               ; preds = %39
  %48 = load ptr, ptr %8, align 8, !tbaa !10
  store i32 1, ptr %48, align 4, !tbaa !17
  store i32 1, ptr %12, align 4
  br label %131

49:                                               ; preds = %39
  %50 = load i64, ptr %9, align 8, !tbaa !19
  %51 = srem i64 %50, 235
  store i64 %51, ptr %9, align 8, !tbaa !19
  br label %52

52:                                               ; preds = %49, %29
  br label %53

53:                                               ; preds = %70, %52
  %54 = load i8, ptr %11, align 1, !tbaa !21
  %55 = icmp ne i8 %54, 0
  br i1 %55, label %56, label %66

56:                                               ; preds = %53
  %57 = load i64, ptr %9, align 8, !tbaa !19
  %58 = icmp sge i64 %57, 5
  br i1 %58, label %59, label %66

59:                                               ; preds = %56
  %60 = load i32, ptr %10, align 4, !tbaa !15
  %61 = call noundef signext i8 @_ZN6icu_7714HebrewCalendar10isLeapYearEi(i32 noundef %60)
  %62 = icmp ne i8 %61, 0
  br i1 %62, label %66, label %63

63:                                               ; preds = %59
  %64 = load i64, ptr %9, align 8, !tbaa !19
  %65 = add nsw i64 %64, 1
  store i64 %65, ptr %9, align 8, !tbaa !19
  br label %66

66:                                               ; preds = %63, %59, %56, %53
  %67 = load i64, ptr %9, align 8, !tbaa !19
  %68 = icmp sle i64 %67, 12
  br i1 %68, label %69, label %70

69:                                               ; preds = %66
  br label %75

70:                                               ; preds = %66
  %71 = load i64, ptr %9, align 8, !tbaa !19
  %72 = sub nsw i64 %71, 13
  store i64 %72, ptr %9, align 8, !tbaa !19
  %73 = load i32, ptr %10, align 4, !tbaa !15
  %74 = add nsw i32 %73, 1
  store i32 %74, ptr %10, align 4, !tbaa !15
  store i8 1, ptr %11, align 1, !tbaa !21
  br label %53, !llvm.loop !22

75:                                               ; preds = %69
  br label %123

76:                                               ; preds = %21
  %77 = load i64, ptr %9, align 8, !tbaa !19
  %78 = icmp sgt i64 %77, 5
  %79 = zext i1 %78 to i8
  store i8 %79, ptr %11, align 1, !tbaa !21
  %80 = load i32, ptr %7, align 4, !tbaa !15
  %81 = sext i32 %80 to i64
  %82 = load i64, ptr %9, align 8, !tbaa !19
  %83 = add nsw i64 %82, %81
  store i64 %83, ptr %9, align 8, !tbaa !19
  %84 = load i64, ptr %9, align 8, !tbaa !19
  %85 = icmp sle i64 %84, -235
  br i1 %85, label %86, label %99

86:                                               ; preds = %76
  %87 = load i32, ptr %10, align 4, !tbaa !15
  %88 = load i64, ptr %9, align 8, !tbaa !19
  %89 = sdiv i64 %88, 235
  %90 = mul nsw i64 %89, 19
  %91 = trunc i64 %90 to i32
  %92 = call signext i8 @uprv_add32_overflow_77(i32 noundef %87, i32 noundef %91, ptr noundef %10)
  %93 = icmp ne i8 %92, 0
  br i1 %93, label %94, label %96

94:                                               ; preds = %86
  %95 = load ptr, ptr %8, align 8, !tbaa !10
  store i32 1, ptr %95, align 4, !tbaa !17
  store i32 1, ptr %12, align 4
  br label %131

96:                                               ; preds = %86
  %97 = load i64, ptr %9, align 8, !tbaa !19
  %98 = srem i64 %97, 235
  store i64 %98, ptr %9, align 8, !tbaa !19
  br label %99

99:                                               ; preds = %96, %76
  br label %100

100:                                              ; preds = %117, %99
  %101 = load i8, ptr %11, align 1, !tbaa !21
  %102 = icmp ne i8 %101, 0
  br i1 %102, label %103, label %113

103:                                              ; preds = %100
  %104 = load i64, ptr %9, align 8, !tbaa !19
  %105 = icmp sle i64 %104, 5
  br i1 %105, label %106, label %113

106:                                              ; preds = %103
  %107 = load i32, ptr %10, align 4, !tbaa !15
  %108 = call noundef signext i8 @_ZN6icu_7714HebrewCalendar10isLeapYearEi(i32 noundef %107)
  %109 = icmp ne i8 %108, 0
  br i1 %109, label %113, label %110

110:                                              ; preds = %106
  %111 = load i64, ptr %9, align 8, !tbaa !19
  %112 = add nsw i64 %111, -1
  store i64 %112, ptr %9, align 8, !tbaa !19
  br label %113

113:                                              ; preds = %110, %106, %103, %100
  %114 = load i64, ptr %9, align 8, !tbaa !19
  %115 = icmp sge i64 %114, 0
  br i1 %115, label %116, label %117

116:                                              ; preds = %113
  br label %122

117:                                              ; preds = %113
  %118 = load i64, ptr %9, align 8, !tbaa !19
  %119 = add nsw i64 %118, 13
  store i64 %119, ptr %9, align 8, !tbaa !19
  %120 = load i32, ptr %10, align 4, !tbaa !15
  %121 = add nsw i32 %120, -1
  store i32 %121, ptr %10, align 4, !tbaa !15
  store i8 1, ptr %11, align 1, !tbaa !21
  br label %100, !llvm.loop !24

122:                                              ; preds = %116
  br label %123

123:                                              ; preds = %122, %75
  %124 = load i64, ptr %9, align 8, !tbaa !19
  %125 = trunc i64 %124 to i32
  call void @_ZN6icu_778Calendar3setE19UCalendarDateFieldsi(ptr noundef nonnull align 8 dereferenceable(192) %13, i32 noundef 2, i32 noundef %125)
  %126 = load i32, ptr %10, align 4, !tbaa !15
  call void @_ZN6icu_778Calendar3setE19UCalendarDateFieldsi(ptr noundef nonnull align 8 dereferenceable(192) %13, i32 noundef 1, i32 noundef %126)
  %127 = load ptr, ptr %8, align 8, !tbaa !10
  %128 = load ptr, ptr %13, align 8, !tbaa !11
  %129 = getelementptr inbounds ptr, ptr %128, i64 50
  %130 = load ptr, ptr %129, align 8
  call void %130(ptr noundef nonnull align 8 dereferenceable(192) %13, i32 noundef 5, ptr noundef nonnull align 4 dereferenceable(4) %127)
  store i32 2, ptr %12, align 4
  br label %131

131:                                              ; preds = %123, %94, %47
  call void @llvm.lifetime.end.p0(i64 1, ptr %11) #11
  call void @llvm.lifetime.end.p0(i64 4, ptr %10) #11
  call void @llvm.lifetime.end.p0(i64 8, ptr %9) #11
  %132 = load i32, ptr %12, align 4
  switch i32 %132, label %138 [
    i32 1, label %137
    i32 2, label %137
  ]

133:                                              ; preds = %19
  %134 = load i32, ptr %6, align 4, !tbaa !13
  %135 = load i32, ptr %7, align 4, !tbaa !15
  %136 = load ptr, ptr %8, align 8, !tbaa !10
  call void @_ZN6icu_778Calendar3addE19UCalendarDateFieldsiR10UErrorCode(ptr noundef nonnull align 8 dereferenceable(192) %13, i32 noundef %134, i32 noundef %135, ptr noundef nonnull align 4 dereferenceable(4) %136)
  br label %137

137:                                              ; preds = %18, %131, %133, %131
  ret void

138:                                              ; preds = %131
  unreachable
}