; Function Attrs: mustprogress uwtable
define void @_ZN6icu_7714HebrewCalendar3addE19UCalendarDateFieldsiR10UErrorCode(ptr noundef nonnull align 8 dereferenceable(192) %0, i32 noundef %1, i32 noundef %2, ptr noundef nonnull align 4 dereferenceable(4) %3) unnamed_addr #0 align 2 {
  %5 = alloca i32, align 4
  %6 = load i32, ptr %3, align 4, !tbaa !6
  %7 = icmp slt i32 %6, 1
  br i1 %7, label %8, label %78

8:                                                ; preds = %4
  switch i32 %1, label %77 [
    i32 2, label %9
    i32 23, label %9
  ]

9:                                                ; preds = %8, %8
  %10 = tail call noundef i32 @_ZNK6icu_778Calendar3getE19UCalendarDateFieldsR10UErrorCode(ptr noundef nonnull align 8 dereferenceable(192) %0, i32 noundef 2, ptr noundef nonnull align 4 dereferenceable(4) %3)
  %11 = sext i32 %10 to i64
  call void @llvm.lifetime.start.p0(i64 4, ptr nonnull %5) #8
  %12 = tail call noundef i32 @_ZNK6icu_778Calendar3getE19UCalendarDateFieldsR10UErrorCode(ptr noundef nonnull align 8 dereferenceable(192) %0, i32 noundef 1, ptr noundef nonnull align 4 dereferenceable(4) %3)
  store i32 %12, ptr %5, align 4, !tbaa !9
  %13 = icmp sgt i32 %2, 0
  br i1 %13, label %14, label %42

14:                                               ; preds = %9
  %15 = icmp slt i32 %10, 5
  %16 = zext nneg i32 %2 to i64
  %17 = add nsw i64 %11, %16
  %18 = icmp sgt i64 %17, 234
  br i1 %18, label %19, label %26

19:                                               ; preds = %14
  %.lhs.trunc = trunc i64 %17 to i32
  %20 = udiv i32 %.lhs.trunc, 235
  %21 = urem i32 %.lhs.trunc, 235
  %22 = mul nuw nsw i32 %20, 19
  %23 = call signext i8 @uprv_add32_overflow_77(i32 noundef %12, i32 noundef %22, ptr noundef nonnull %5)
  %.not47 = icmp eq i8 %23, 0
  br i1 %.not47, label %25, label %24

24:                                               ; preds = %19
  store i32 1, ptr %3, align 4, !tbaa !6
  br label %76

25:                                               ; preds = %19
  %.zext51 = zext nneg i32 %21 to i64
  %.promoted56.pre = load i32, ptr %5, align 4
  br label %26

26:                                               ; preds = %25, %14
  %.promoted56 = phi i32 [ %.promoted56.pre, %25 ], [ %12, %14 ]
  %.037 = phi i64 [ %.zext51, %25 ], [ %17, %14 ]
  %27 = sext i32 %.promoted56 to i64
  br label %28

28:                                               ; preds = %39, %26
  %indvars.iv58 = phi i64 [ %indvars.iv.next59, %39 ], [ %27, %26 ]
  %.138 = phi i64 [ %40, %39 ], [ %.037, %26 ]
  %.0 = phi i1 [ true, %39 ], [ %15, %26 ]
  %29 = icmp sgt i64 %.138, 4
  %or.cond = select i1 %.0, i1 %29, i1 false
  br i1 %or.cond, label %30, label %37

30:                                               ; preds = %28
  %31 = mul nsw i64 %indvars.iv58, 12
  %32 = add nsw i64 %31, 17
  %33 = srem i64 %32, 19
  %34 = icmp slt i64 %33, 0
  %35 = select i1 %34, i64 -7, i64 12
  %.not54 = icmp slt i64 %33, %35
  %36 = zext i1 %.not54 to i64
  %spec.select = add nuw nsw i64 %.138, %36
  br label %37

37:                                               ; preds = %30, %28
  %.2 = phi i64 [ %.138, %28 ], [ %spec.select, %30 ]
  %38 = icmp slt i64 %.2, 13
  br i1 %38, label %.loopexit, label %39

39:                                               ; preds = %37
  %40 = add nsw i64 %.2, -13
  %indvars.iv.next59 = add nsw i64 %indvars.iv58, 1
  %41 = trunc nsw i64 %indvars.iv.next59 to i32
  store i32 %41, ptr %5, align 4, !tbaa !9
  br label %28, !llvm.loop !11

42:                                               ; preds = %9
  %43 = icmp sgt i32 %10, 5
  %44 = sext i32 %2 to i64
  %45 = add nsw i64 %11, %44
  %46 = icmp slt i64 %45, -234
  br i1 %46, label %47, label %55

47:                                               ; preds = %42
  %.nonneg = sub nsw i64 0, %45
  %48 = udiv i64 %.nonneg, 235
  %49 = urem i64 %.nonneg, 235
  %50 = trunc i64 %48 to i32
  %51 = mul nsw i32 %50, -19
  %52 = call signext i8 @uprv_add32_overflow_77(i32 noundef %12, i32 noundef %51, ptr noundef nonnull %5)
  %.not45 = icmp eq i8 %52, 0
  br i1 %.not45, label %54, label %53

53:                                               ; preds = %47
  store i32 1, ptr %3, align 4, !tbaa !6
  br label %76

54:                                               ; preds = %47
  %.neg53 = sub nsw i64 0, %49
  %.promoted.pre = load i32, ptr %5, align 4
  br label %55

55:                                               ; preds = %54, %42
  %.promoted = phi i32 [ %.promoted.pre, %54 ], [ %12, %42 ]
  %.4 = phi i64 [ %.neg53, %54 ], [ %45, %42 ]
  %56 = sext i32 %.promoted to i64
  br label %57

57:                                               ; preds = %68, %55
  %indvars.iv = phi i64 [ %indvars.iv.next, %68 ], [ %56, %55 ]
  %.5 = phi i64 [ %69, %68 ], [ %.4, %55 ]
  %.1 = phi i1 [ true, %68 ], [ %43, %55 ]
  %58 = icmp slt i64 %.5, 6
  %or.cond3 = select i1 %.1, i1 %58, i1 false
  br i1 %or.cond3, label %59, label %66

59:                                               ; preds = %57
  %60 = mul nsw i64 %indvars.iv, 12
  %61 = add nsw i64 %60, 17
  %62 = srem i64 %61, 19
  %63 = icmp slt i64 %62, 0
  %64 = select i1 %63, i64 -7, i64 12
  %.not = icmp slt i64 %62, %64
  %65 = sext i1 %.not to i64
  %spec.select49 = add nsw i64 %.5, %65
  br label %66

66:                                               ; preds = %59, %57
  %.6 = phi i64 [ %.5, %57 ], [ %spec.select49, %59 ]
  %67 = icmp sgt i64 %.6, -1
  br i1 %67, label %.loopexit, label %68

68:                                               ; preds = %66
  %69 = add nsw i64 %.6, 13
  %indvars.iv.next = add nsw i64 %indvars.iv, -1
  %70 = trunc nsw i64 %indvars.iv.next to i32
  store i32 %70, ptr %5, align 4, !tbaa !9
  br label %57, !llvm.loop !13

.loopexit:                                        ; preds = %66, %37
  %.3 = phi i64 [ %.2, %37 ], [ %.6, %66 ]
  %71 = trunc nsw i64 %.3 to i32
  call void @_ZN6icu_778Calendar3setE19UCalendarDateFieldsi(ptr noundef nonnull align 8 dereferenceable(192) %0, i32 noundef 2, i32 noundef %71)
  %72 = load i32, ptr %5, align 4, !tbaa !9
  call void @_ZN6icu_778Calendar3setE19UCalendarDateFieldsi(ptr noundef nonnull align 8 dereferenceable(192) %0, i32 noundef 1, i32 noundef %72)
  %73 = load ptr, ptr %0, align 8, !tbaa !3
  %74 = getelementptr inbounds nuw i8, ptr %73, i64 400
  %75 = load ptr, ptr %74, align 8
  call void %75(ptr noundef nonnull align 8 dereferenceable(192) %0, i32 noundef 5, ptr noundef nonnull align 4 dereferenceable(4) %3)
  br label %76

76:                                               ; preds = %.loopexit, %53, %24
  call void @llvm.lifetime.end.p0(i64 4, ptr nonnull %5) #8
  br label %78

77:                                               ; preds = %8
  tail call void @_ZN6icu_778Calendar3addE19UCalendarDateFieldsiR10UErrorCode(ptr noundef nonnull align 8 dereferenceable(192) %0, i32 noundef %1, i32 noundef %2, ptr noundef nonnull align 4 dereferenceable(4) %3)
  br label %78

78:                                               ; preds = %4, %76, %77
  ret void
}